; Function Attrs: mustprogress uwtable
define dso_local void @_ZN4Luau6detail6mkNameERKNS_7AstNameE(ptr dead_on_unwind noalias writable sret(%"struct.Luau::detail::Identifier") align 8 %0, ptr nocapture noundef nonnull readonly align 8 dereferenceable(8) %1) local_unnamed_addr #2 personality ptr @__gxx_personality_v0 {
  %3 = alloca %"class.std::allocator", align 1
  %4 = load ptr, ptr %1, align 8
  call void @_ZNSaIcEC1Ev(ptr noundef nonnull align 1 dereferenceable(1) %3) #19
  %5 = invoke noundef ptr @_ZNSt7__cxx1112basic_stringIcSt11char_traitsIcESaIcEE13_M_local_dataEv(ptr noundef nonnull align 8 dereferenceable(32) %0)
          to label %.noexc unwind label %15

.noexc:                                           ; preds = %2
  invoke void @_ZNSt7__cxx1112basic_stringIcSt11char_traitsIcESaIcEE12_Alloc_hiderC1EPcRKS3_(ptr noundef nonnull align 8 dereferenceable(8) %0, ptr noundef %5, ptr noundef nonnull align 1 dereferenceable(1) %3)
          to label %.noexc2 unwind label %15

.noexc2:                                          ; preds = %.noexc
  %6 = icmp eq ptr %4, null
  br i1 %6, label %7, label %11

7:                                                ; preds = %.noexc2
  invoke void @_ZSt19__throw_logic_errorPKc(ptr noundef nonnull @.str.55) #20
          to label %8 unwind label %9

8:                                                ; preds = %7
  unreachable

9:                                                ; preds = %11, %7
  %10 = landingpad { ptr, i32 }
          cleanup
  call void @_ZNSaIcED2Ev(ptr noundef nonnull align 1 dereferenceable(1) %0) #19
  br label %.body

11:                                               ; preds = %.noexc2
  %12 = call noundef i64 @strlen(ptr noundef nonnull dereferenceable(1) %4) #19
  %13 = getelementptr inbounds i8, ptr %4, i64 %12
  invoke void @_ZNSt7__cxx1112basic_stringIcSt11char_traitsIcESaIcEE12_M_constructIPKcEEvT_S8_St20forward_iterator_tag(ptr noundef nonnull align 8 dereferenceable(32) %0, ptr noundef nonnull %4, ptr noundef nonnull %13)
          to label %_ZNSt7__cxx1112basic_stringIcSt11char_traitsIcESaIcEEC2IS3_EEPKcRKS3_.exit unwind label %9

_ZNSt7__cxx1112basic_stringIcSt11char_traitsIcESaIcEEC2IS3_EEPKcRKS3_.exit: ; preds = %11
  %14 = getelementptr inbounds i8, ptr %0, i64 32
  store ptr null, ptr %14, align 8
  call void @_ZNSaIcED1Ev(ptr noundef nonnull align 1 dereferenceable(1) %3) #19
  ret void

15:                                               ; preds = %.noexc, %2
  %16 = landingpad { ptr, i32 }
          cleanup
  br label %.body

.body:                                            ; preds = %9, %15
  %eh.lpad-body = phi { ptr, i32 } [ %16, %15 ], [ %10, %9 ]
  call void @_ZNSaIcED1Ev(ptr noundef nonnull align 1 dereferenceable(1) %3) #19
  resume { ptr, i32 } %eh.lpad-body
}